target datalayout = "e-m:e-p270:32:32-p271:32:32-p272:64:64-i64:64-i128:128-f80:128-n8:16:32:64-S128"
target triple = "x86_64-pc-linux-gnu"

; Function Attrs: nounwind uwtable
define void @ff_ivi_row_haar4(ptr noundef %0, ptr noundef %1, i64 noundef %2, ptr noundef %3) #0 {
  %5 = alloca ptr, align 8
  %6 = alloca ptr, align 8
  %7 = alloca i64, align 8
  %8 = alloca ptr, align 8
  %9 = alloca i32, align 4
  %10 = alloca i32, align 4
  %11 = alloca i32, align 4
  %12 = alloca i32, align 4
  %13 = alloca i32, align 4
  %14 = alloca i32, align 4
  store ptr %0, ptr %5, align 8, !tbaa !40
  store ptr %1, ptr %6, align 8, !tbaa !30
  store i64 %2, ptr %7, align 8, !tbaa !11
  store ptr %3, ptr %8, align 8, !tbaa !9
  call void @llvm.lifetime.start.p0(i64 4, ptr %9) #4
  call void @llvm.lifetime.start.p0(i64 4, ptr %10) #4
  call void @llvm.lifetime.start.p0(i64 4, ptr %11) #4
  call void @llvm.lifetime.start.p0(i64 4, ptr %12) #4
  call void @llvm.lifetime.start.p0(i64 4, ptr %13) #4
  call void @llvm.lifetime.start.p0(i64 4, ptr %14) #4
  store i32 0, ptr %9, align 4, !tbaa !13
  br label %15

15:                                               ; preds = %106, %4
  %16 = load i32, ptr %9, align 4, !tbaa !13
  %17 = icmp slt i32 %16, 4
  br i1 %17, label %18, label %109

18:                                               ; preds = %15
  %19 = load ptr, ptr %5, align 8, !tbaa !40
  %20 = getelementptr inbounds i32, ptr %19, i64 0
  %21 = load i32, ptr %20, align 4, !tbaa !13
  %22 = icmp ne i32 %21, 0
  br i1 %22, label %40, label %23

23:                                               ; preds = %18
  %24 = load ptr, ptr %5, align 8, !tbaa !40
  %25 = getelementptr inbounds i32, ptr %24, i64 1
  %26 = load i32, ptr %25, align 4, !tbaa !13
  %27 = icmp ne i32 %26, 0
  br i1 %27, label %40, label %28

28:                                               ; preds = %23
  %29 = load ptr, ptr %5, align 8, !tbaa !40
  %30 = getelementptr inbounds i32, ptr %29, i64 2
  %31 = load i32, ptr %30, align 4, !tbaa !13
  %32 = icmp ne i32 %31, 0
  br i1 %32, label %40, label %33

33:                                               ; preds = %28
  %34 = load ptr, ptr %5, align 8, !tbaa !40
  %35 = getelementptr inbounds i32, ptr %34, i64 3
  %36 = load i32, ptr %35, align 4, !tbaa !13
  %37 = icmp ne i32 %36, 0
  br i1 %37, label %40, label %38

38:                                               ; preds = %33
  %39 = load ptr, ptr %6, align 8, !tbaa !30
  call void @llvm.memset.p0.i64(ptr align 2 %39, i8 0, i64 8, i1 false)
  br label %100

40:                                               ; preds = %33, %28, %23, %18
  %41 = load ptr, ptr %5, align 8, !tbaa !40
  %42 = getelementptr inbounds i32, ptr %41, i64 0
  %43 = load i32, ptr %42, align 4, !tbaa !13
  %44 = load ptr, ptr %5, align 8, !tbaa !40
  %45 = getelementptr inbounds i32, ptr %44, i64 1
  %46 = load i32, ptr %45, align 4, !tbaa !13
  %47 = sub nsw i32 %43, %46
  %48 = ashr i32 %47, 1
  store i32 %48, ptr %14, align 4, !tbaa !13
  %49 = load ptr, ptr %5, align 8, !tbaa !40
  %50 = getelementptr inbounds i32, ptr %49, i64 0
  %51 = load i32, ptr %50, align 4, !tbaa !13
  %52 = load ptr, ptr %5, align 8, !tbaa !40
  %53 = getelementptr inbounds i32, ptr %52, i64 1
  %54 = load i32, ptr %53, align 4, !tbaa !13
  %55 = add nsw i32 %51, %54
  %56 = ashr i32 %55, 1
  store i32 %56, ptr %10, align 4, !tbaa !13
  %57 = load i32, ptr %14, align 4, !tbaa !13
  store i32 %57, ptr %11, align 4, !tbaa !13
  %58 = load i32, ptr %10, align 4, !tbaa !13
  %59 = load ptr, ptr %5, align 8, !tbaa !40
  %60 = getelementptr inbounds i32, ptr %59, i64 2
  %61 = load i32, ptr %60, align 4, !tbaa !13
  %62 = sub nsw i32 %58, %61
  %63 = ashr i32 %62, 1
  store i32 %63, ptr %14, align 4, !tbaa !13
  %64 = load i32, ptr %10, align 4, !tbaa !13
  %65 = load ptr, ptr %5, align 8, !tbaa !40
  %66 = getelementptr inbounds i32, ptr %65, i64 2
  %67 = load i32, ptr %66, align 4, !tbaa !13
  %68 = add nsw i32 %64, %67
  %69 = ashr i32 %68, 1
  store i32 %69, ptr %12, align 4, !tbaa !13
  %70 = load i32, ptr %14, align 4, !tbaa !13
  store i32 %70, ptr %13, align 4, !tbaa !13
  %71 = load i32, ptr %12, align 4, !tbaa !13
  %72 = trunc i32 %71 to i16
  %73 = load ptr, ptr %6, align 8, !tbaa !30
  %74 = getelementptr inbounds i16, ptr %73, i64 0
  store i16 %72, ptr %74, align 2, !tbaa !32
  %75 = load i32, ptr %13, align 4, !tbaa !13
  %76 = trunc i32 %75 to i16
  %77 = load ptr, ptr %6, align 8, !tbaa !30
  %78 = getelementptr inbounds i16, ptr %77, i64 1
  store i16 %76, ptr %78, align 2, !tbaa !32
  %79 = load i32, ptr %11, align 4, !tbaa !13
  %80 = load ptr, ptr %5, align 8, !tbaa !40
  %81 = getelementptr inbounds i32, ptr %80, i64 3
  %82 = load i32, ptr %81, align 4, !tbaa !13
  %83 = sub nsw i32 %79, %82
  %84 = ashr i32 %83, 1
  store i32 %84, ptr %14, align 4, !tbaa !13
  %85 = load i32, ptr %11, align 4, !tbaa !13
  %86 = load ptr, ptr %5, align 8, !tbaa !40
  %87 = getelementptr inbounds i32, ptr %86, i64 3
  %88 = load i32, ptr %87, align 4, !tbaa !13
  %89 = add nsw i32 %85, %88
  %90 = ashr i32 %89, 1
  store i32 %90, ptr %12, align 4, !tbaa !13
  %91 = load i32, ptr %14, align 4, !tbaa !13
  store i32 %91, ptr %13, align 4, !tbaa !13
  %92 = load i32, ptr %12, align 4, !tbaa !13
  %93 = trunc i32 %92 to i16
  %94 = load ptr, ptr %6, align 8, !tbaa !30
  %95 = getelementptr inbounds i16, ptr %94, i64 2
  store i16 %93, ptr %95, align 2, !tbaa !32
  %96 = load i32, ptr %13, align 4, !tbaa !13
  %97 = trunc i32 %96 to i16
  %98 = load ptr, ptr %6, align 8, !tbaa !30
  %99 = getelementptr inbounds i16, ptr %98, i64 3
  store i16 %97, ptr %99, align 2, !tbaa !32
  br label %100

100:                                              ; preds = %40, %38
  %101 = load ptr, ptr %5, align 8, !tbaa !40
  %102 = getelementptr inbounds i32, ptr %101, i64 4
  store ptr %102, ptr %5, align 8, !tbaa !40
  %103 = load i64, ptr %7, align 8, !tbaa !11
  %104 = load ptr, ptr %6, align 8, !tbaa !30
  %105 = getelementptr inbounds i16, ptr %104, i64 %103
  store ptr %105, ptr %6, align 8, !tbaa !30
  br label %106

106:                                              ; preds = %100
  %107 = load i32, ptr %9, align 4, !tbaa !13
  %108 = add nsw i32 %107, 1
  store i32 %108, ptr %9, align 4, !tbaa !13
  br label %15, !llvm.loop !48

109:                                              ; preds = %15
  call void @llvm.lifetime.end.p0(i64 4, ptr %14) #4
  call void @llvm.lifetime.end.p0(i64 4, ptr %13) #4
  call void @llvm.lifetime.end.p0(i64 4, ptr %12) #4
  call void @llvm.lifetime.end.p0(i64 4, ptr %11) #4
  call void @llvm.lifetime.end.p0(i64 4, ptr %10) #4
  call void @llvm.lifetime.end.p0(i64 4, ptr %9) #4
  ret void
}