; Function Attrs: nofree norecurse nosync nounwind memory(argmem: readwrite) uwtable
define void @ff_ivi_row_haar4(ptr noundef readonly captures(none) %0, ptr noundef writeonly captures(none) %1, i64 noundef %2, ptr noundef readnone captures(none) %3) local_unnamed_addr #2 {
  br label %5

5:                                                ; preds = %4, %40
  %.039 = phi ptr [ %0, %4 ], [ %41, %40 ]
  %.03238 = phi ptr [ %1, %4 ], [ %42, %40 ]
  %.03337 = phi i32 [ 0, %4 ], [ %43, %40 ]
  %6 = load i32, ptr %.039, align 4, !tbaa !34
  %.not = icmp eq i32 %6, 0
  %7 = getelementptr inbounds nuw i8, ptr %.039, i64 4
  %8 = load i32, ptr %7, align 4, !tbaa !34
  %.not34 = icmp eq i32 %8, 0
  %or.cond = select i1 %.not, i1 %.not34, i1 false
  br i1 %or.cond, label %9, label %._crit_edge

9:                                                ; preds = %5
  %10 = getelementptr inbounds nuw i8, ptr %.039, i64 8
  %11 = load i32, ptr %10, align 4, !tbaa !34
  %.not35 = icmp eq i32 %11, 0
  br i1 %.not35, label %12, label %._crit_edge

12:                                               ; preds = %9
  %13 = getelementptr inbounds nuw i8, ptr %.039, i64 12
  %14 = load i32, ptr %13, align 4, !tbaa !34
  %.not36 = icmp eq i32 %14, 0
  br i1 %.not36, label %15, label %._crit_edge

15:                                               ; preds = %12
  store i64 0, ptr %.03238, align 2
  br label %40

._crit_edge:                                      ; preds = %5, %12, %9
  %16 = phi i32 [ 0, %12 ], [ 0, %9 ], [ %8, %5 ]
  %17 = sub nsw i32 %6, %16
  %18 = ashr i32 %17, 1
  %19 = add nsw i32 %16, %6
  %20 = ashr i32 %19, 1
  %21 = getelementptr inbounds nuw i8, ptr %.039, i64 8
  %22 = load i32, ptr %21, align 4, !tbaa !34
  %23 = sub nsw i32 %20, %22
  %24 = lshr i32 %23, 1
  %25 = add nsw i32 %20, %22
  %26 = lshr i32 %25, 1
  %27 = trunc i32 %26 to i16
  store i16 %27, ptr %.03238, align 2, !tbaa !27
  %28 = trunc i32 %24 to i16
  %29 = getelementptr inbounds nuw i8, ptr %.03238, i64 2
  store i16 %28, ptr %29, align 2, !tbaa !27
  %30 = getelementptr inbounds nuw i8, ptr %.039, i64 12
  %31 = load i32, ptr %30, align 4, !tbaa !34
  %32 = sub nsw i32 %18, %31
  %33 = lshr i32 %32, 1
  %34 = add nsw i32 %31, %18
  %35 = lshr i32 %34, 1
  %36 = trunc i32 %35 to i16
  %37 = getelementptr inbounds nuw i8, ptr %.03238, i64 4
  store i16 %36, ptr %37, align 2, !tbaa !27
  %38 = trunc i32 %33 to i16
  %39 = getelementptr inbounds nuw i8, ptr %.03238, i64 6
  store i16 %38, ptr %39, align 2, !tbaa !27
  br label %40

40:                                               ; preds = %._crit_edge, %15
  %41 = getelementptr inbounds nuw i8, ptr %.039, i64 16
  %42 = getelementptr inbounds i16, ptr %.03238, i64 %2
  %43 = add nuw nsw i32 %.03337, 1
  %exitcond.not = icmp eq i32 %43, 4
  br i1 %exitcond.not, label %44, label %5, !llvm.loop !41

44:                                               ; preds = %40
  ret void
}